target datalayout = "e-m:e-p270:32:32-p271:32:32-p272:64:64-i64:64-i128:128-f80:128-n8:16:32:64-S128"
target triple = "x86_64-pc-linux-gnu"

%struct.archive_read_disk = type { %struct.archive, ptr, i8, i8, ptr, ptr, ptr, ptr, i32, ptr, ptr, ptr, ptr, ptr, ptr, ptr, ptr, ptr, ptr, ptr }
%struct.archive = type { i32, i32, ptr, i32, ptr, i32, i32, ptr, %struct.archive_string, ptr, i32, i32, ptr, ptr, i64, i64, i64, i8, i64 }
%struct.archive_string = type { ptr, i64, i64 }
%struct.tree = type { ptr, ptr, ptr, ptr, i32, i32, i32, %struct.archive_string, ptr, i64, i32, i32, i32, i32, i32, %struct.stat, %struct.stat, i32, i32, %struct.restore_time, ptr, ptr, i32, i32, i8, i8, ptr, ptr, i32, i32, i32, i32, i32, i32, i64, i64, ptr, i64 }
%struct.stat = type { i64, i64, i64, i32, i32, i32, i32, i64, i64, i64, i64, %struct.timespec, %struct.timespec, %struct.timespec, [3 x i64] }
%struct.timespec = type { i64, i64 }
%struct.restore_time = type { ptr, i64, i64, i64, i64, i32, i32 }
%struct.tree_entry = type { i32, ptr, ptr, %struct.archive_string, i64, i64, i64, i32, i32, i32, %struct.restore_time }

@.str.11 = private unnamed_addr constant [30 x i8] c"archive_read_disk_can_descend\00", align 1
@.str.12 = private unnamed_addr constant [26 x i8] c"archive_read_disk_descend\00", align 1

; Function Attrs: nounwind uwtable
define internal ptr @tree_current_access_path(ptr noundef %0) #0 {
  %2 = alloca ptr, align 8
  store ptr %0, ptr %2, align 8
  %3 = load ptr, ptr %2, align 8
  %4 = getelementptr inbounds %struct.tree, ptr %3, i32 0, i32 8
  %5 = load ptr, ptr %4, align 8
  ret ptr %5
}

; Function Attrs: nounwind uwtable
define internal i32 @tree_current_dir_fd(ptr noundef %0) #0 {
  %2 = alloca ptr, align 8
  store ptr %0, ptr %2, align 8
  %3 = load ptr, ptr %2, align 8
  %4 = getelementptr inbounds %struct.tree, ptr %3, i32 0, i32 14
  %5 = load i32, ptr %4, align 8
  ret i32 %5
}

; Function Attrs: nounwind uwtable
define internal ptr @tree_current_lstat(ptr noundef %0) #0 {
  %2 = alloca ptr, align 8
  %3 = alloca ptr, align 8
  store ptr %0, ptr %3, align 8
  %4 = load ptr, ptr %3, align 8
  %5 = getelementptr inbounds %struct.tree, ptr %4, i32 0, i32 4
  %6 = load i32, ptr %5, align 8
  %7 = and i32 %6, 32
  %8 = icmp ne i32 %7, 0
  br i1 %8, label %24, label %9

9:                                                ; preds = %1
  %10 = load ptr, ptr %3, align 8
  %11 = call i32 @tree_current_dir_fd(ptr noundef %10)
  %12 = load ptr, ptr %3, align 8
  %13 = call ptr @tree_current_access_path(ptr noundef %12)
  %14 = load ptr, ptr %3, align 8
  %15 = getelementptr inbounds %struct.tree, ptr %14, i32 0, i32 15
  %16 = call i32 @fstatat(i32 noundef %11, ptr noundef %13, ptr noundef %15, i32 noundef 256) #10
  %17 = icmp ne i32 %16, 0
  br i1 %17, label %18, label %19

18:                                               ; preds = %9
  store ptr null, ptr %2, align 8
  br label %27

19:                                               ; preds = %9
  %20 = load ptr, ptr %3, align 8
  %21 = getelementptr inbounds %struct.tree, ptr %20, i32 0, i32 4
  %22 = load i32, ptr %21, align 8
  %23 = or i32 %22, 32
  store i32 %23, ptr %21, align 8
  br label %24

24:                                               ; preds = %19, %1
  %25 = load ptr, ptr %3, align 8
  %26 = getelementptr inbounds %struct.tree, ptr %25, i32 0, i32 15
  store ptr %26, ptr %2, align 8
  br label %27

27:                                               ; preds = %24, %18
  %28 = load ptr, ptr %2, align 8
  ret ptr %28
}

; Function Attrs: nounwind uwtable
define internal ptr @tree_current_stat(ptr noundef %0) #0 {
  %2 = alloca ptr, align 8
  %3 = alloca ptr, align 8
  store ptr %0, ptr %3, align 8
  %4 = load ptr, ptr %3, align 8
  %5 = getelementptr inbounds %struct.tree, ptr %4, i32 0, i32 4
  %6 = load i32, ptr %5, align 8
  %7 = and i32 %6, 16
  %8 = icmp ne i32 %7, 0
  br i1 %8, label %24, label %9

9:                                                ; preds = %1
  %10 = load ptr, ptr %3, align 8
  %11 = call i32 @tree_current_dir_fd(ptr noundef %10)
  %12 = load ptr, ptr %3, align 8
  %13 = call ptr @tree_current_access_path(ptr noundef %12)
  %14 = load ptr, ptr %3, align 8
  %15 = getelementptr inbounds %struct.tree, ptr %14, i32 0, i32 16
  %16 = call i32 @fstatat(i32 noundef %11, ptr noundef %13, ptr noundef %15, i32 noundef 0) #10
  %17 = icmp ne i32 %16, 0
  br i1 %17, label %18, label %19

18:                                               ; preds = %9
  store ptr null, ptr %2, align 8
  br label %27

19:                                               ; preds = %9
  %20 = load ptr, ptr %3, align 8
  %21 = getelementptr inbounds %struct.tree, ptr %20, i32 0, i32 4
  %22 = load i32, ptr %21, align 8
  %23 = or i32 %22, 16
  store i32 %23, ptr %21, align 8
  br label %24

24:                                               ; preds = %19, %1
  %25 = load ptr, ptr %3, align 8
  %26 = getelementptr inbounds %struct.tree, ptr %25, i32 0, i32 16
  store ptr %26, ptr %2, align 8
  br label %27

27:                                               ; preds = %24, %18
  %28 = load ptr, ptr %2, align 8
  ret ptr %28
}

; Function Attrs: nounwind uwtable
define internal i32 @tree_current_is_dir(ptr noundef %0) #0 {
  %2 = alloca i32, align 4
  %3 = alloca ptr, align 8
  %4 = alloca ptr, align 8
  store ptr %0, ptr %3, align 8
  %5 = load ptr, ptr %3, align 8
  %6 = getelementptr inbounds %struct.tree, ptr %5, i32 0, i32 4
  %7 = load i32, ptr %6, align 8
  %8 = and i32 %7, 32
  %9 = icmp ne i32 %8, 0
  br i1 %9, label %10, label %31

10:                                               ; preds = %1
  %11 = load ptr, ptr %3, align 8
  %12 = call ptr @tree_current_lstat(ptr noundef %11)
  store ptr %12, ptr %4, align 8
  %13 = load ptr, ptr %4, align 8
  %14 = icmp eq ptr %13, null
  br i1 %14, label %15, label %16

15:                                               ; preds = %10
  store i32 0, ptr %2, align 4
  br label %44

16:                                               ; preds = %10
  %17 = load ptr, ptr %4, align 8
  %18 = getelementptr inbounds %struct.stat, ptr %17, i32 0, i32 3
  %19 = load i32, ptr %18, align 8
  %20 = and i32 %19, 61440
  %21 = icmp eq i32 %20, 16384
  br i1 %21, label %22, label %23

22:                                               ; preds = %16
  store i32 1, ptr %2, align 4
  br label %44

23:                                               ; preds = %16
  %24 = load ptr, ptr %4, align 8
  %25 = getelementptr inbounds %struct.stat, ptr %24, i32 0, i32 3
  %26 = load i32, ptr %25, align 8
  %27 = and i32 %26, 61440
  %28 = icmp eq i32 %27, 40960
  br i1 %28, label %30, label %29

29:                                               ; preds = %23
  store i32 0, ptr %2, align 4
  br label %44

30:                                               ; preds = %23
  br label %31

31:                                               ; preds = %30, %1
  %32 = load ptr, ptr %3, align 8
  %33 = call ptr @tree_current_stat(ptr noundef %32)
  store ptr %33, ptr %4, align 8
  %34 = load ptr, ptr %4, align 8
  %35 = icmp eq ptr %34, null
  br i1 %35, label %36, label %37

36:                                               ; preds = %31
  store i32 0, ptr %2, align 4
  br label %44

37:                                               ; preds = %31
  %38 = load ptr, ptr %4, align 8
  %39 = getelementptr inbounds %struct.stat, ptr %38, i32 0, i32 3
  %40 = load i32, ptr %39, align 8
  %41 = and i32 %40, 61440
  %42 = icmp eq i32 %41, 16384
  %43 = zext i1 %42 to i32
  store i32 %43, ptr %2, align 4
  br label %44

44:                                               ; preds = %37, %36, %29, %22, %15
  %45 = load i32, ptr %2, align 4
  ret i32 %45
}

; Function Attrs: nounwind uwtable
define internal i32 @tree_current_is_physical_dir(ptr noundef %0) #0 {
  %2 = alloca i32, align 4
  %3 = alloca ptr, align 8
  %4 = alloca ptr, align 8
  store ptr %0, ptr %3, align 8
  %5 = load ptr, ptr %3, align 8
  %6 = getelementptr inbounds %struct.tree, ptr %5, i32 0, i32 4
  %7 = load i32, ptr %6, align 8
  %8 = and i32 %7, 16
  %9 = icmp ne i32 %8, 0
  br i1 %9, label %10, label %24

10:                                               ; preds = %1
  %11 = load ptr, ptr %3, align 8
  %12 = call ptr @tree_current_stat(ptr noundef %11)
  store ptr %12, ptr %4, align 8
  %13 = load ptr, ptr %4, align 8
  %14 = icmp eq ptr %13, null
  br i1 %14, label %15, label %16

15:                                               ; preds = %10
  store i32 0, ptr %2, align 4
  br label %37

16:                                               ; preds = %10
  %17 = load ptr, ptr %4, align 8
  %18 = getelementptr inbounds %struct.stat, ptr %17, i32 0, i32 3
  %19 = load i32, ptr %18, align 8
  %20 = and i32 %19, 61440
  %21 = icmp eq i32 %20, 16384
  br i1 %21, label %23, label %22

22:                                               ; preds = %16
  store i32 0, ptr %2, align 4
  br label %37

23:                                               ; preds = %16
  br label %24

24:                                               ; preds = %23, %1
  %25 = load ptr, ptr %3, align 8
  %26 = call ptr @tree_current_lstat(ptr noundef %25)
  store ptr %26, ptr %4, align 8
  %27 = load ptr, ptr %4, align 8
  %28 = icmp eq ptr %27, null
  br i1 %28, label %29, label %30

29:                                               ; preds = %24
  store i32 0, ptr %2, align 4
  br label %37

30:                                               ; preds = %24
  %31 = load ptr, ptr %4, align 8
  %32 = getelementptr inbounds %struct.stat, ptr %31, i32 0, i32 3
  %33 = load i32, ptr %32, align 8
  %34 = and i32 %33, 61440
  %35 = icmp eq i32 %34, 16384
  %36 = zext i1 %35 to i32
  store i32 %36, ptr %2, align 4
  br label %37

37:                                               ; preds = %30, %29, %22, %15
  %38 = load i32, ptr %2, align 4
  ret i32 %38
}

; Function Attrs: nounwind uwtable
define dso_local i32 @archive_read_disk_can_descend(ptr noundef %0) #0 {
  %2 = alloca i32, align 4
  %3 = alloca ptr, align 8
  %4 = alloca ptr, align 8
  %5 = alloca ptr, align 8
  %6 = alloca i32, align 4
  store ptr %0, ptr %3, align 8
  %7 = load ptr, ptr %3, align 8
  store ptr %7, ptr %4, align 8
  %8 = load ptr, ptr %4, align 8
  %9 = getelementptr inbounds %struct.archive_read_disk, ptr %8, i32 0, i32 4
  %10 = load ptr, ptr %9, align 8
  store ptr %10, ptr %5, align 8
  br label %11

11:                                               ; preds = %1
  %12 = load ptr, ptr %3, align 8
  %13 = call i32 @__archive_check_magic(ptr noundef %12, i32 noundef 195932357, i32 noundef 6, ptr noundef @.str.11)
  store i32 %13, ptr %6, align 4
  %14 = load i32, ptr %6, align 4
  %15 = icmp eq i32 %14, -30
  br i1 %15, label %16, label %17

16:                                               ; preds = %11
  store i32 -30, ptr %2, align 4
  br label %31

17:                                               ; preds = %11
  br label %18

18:                                               ; preds = %17
  %19 = load ptr, ptr %5, align 8
  %20 = getelementptr inbounds %struct.tree, ptr %19, i32 0, i32 5
  %21 = load i32, ptr %20, align 4
  %22 = icmp eq i32 %21, 1
  br i1 %22, label %23, label %28

23:                                               ; preds = %18
  %24 = load ptr, ptr %5, align 8
  %25 = getelementptr inbounds %struct.tree, ptr %24, i32 0, i32 17
  %26 = load i32, ptr %25, align 8
  %27 = icmp ne i32 %26, 0
  br label %28

28:                                               ; preds = %23, %18
  %29 = phi i1 [ false, %18 ], [ %27, %23 ]
  %30 = zext i1 %29 to i32
  store i32 %30, ptr %2, align 4
  br label %31

31:                                               ; preds = %28, %16
  %32 = load i32, ptr %2, align 4
  ret i32 %32
}

; Function Attrs: nounwind uwtable
define dso_local i32 @archive_read_disk_descend(ptr noundef %0) #0 {
  %2 = alloca i32, align 4
  %3 = alloca ptr, align 8
  %4 = alloca ptr, align 8
  %5 = alloca ptr, align 8
  %6 = alloca i32, align 4
  store ptr %0, ptr %3, align 8
  %7 = load ptr, ptr %3, align 8
  store ptr %7, ptr %4, align 8
  %8 = load ptr, ptr %4, align 8
  %9 = getelementptr inbounds %struct.archive_read_disk, ptr %8, i32 0, i32 4
  %10 = load ptr, ptr %9, align 8
  store ptr %10, ptr %5, align 8
  br label %11

11:                                               ; preds = %1
  %12 = load ptr, ptr %3, align 8
  %13 = call i32 @__archive_check_magic(ptr noundef %12, i32 noundef 195932357, i32 noundef 6, ptr noundef @.str.12)
  store i32 %13, ptr %6, align 4
  %14 = load i32, ptr %6, align 4
  %15 = icmp eq i32 %14, -30
  br i1 %15, label %16, label %17

16:                                               ; preds = %11
  store i32 -30, ptr %2, align 4
  br label %100

17:                                               ; preds = %11
  br label %18

18:                                               ; preds = %17
  %19 = load ptr, ptr %3, align 8
  %20 = call i32 @archive_read_disk_can_descend(ptr noundef %19)
  %21 = icmp ne i32 %20, 0
  br i1 %21, label %23, label %22

22:                                               ; preds = %18
  store i32 0, ptr %2, align 4
  br label %100

23:                                               ; preds = %18
  %24 = load ptr, ptr %5, align 8
  %25 = call i32 @tree_current_is_physical_dir(ptr noundef %24)
  %26 = icmp ne i32 %25, 0
  br i1 %26, label %27, label %68

27:                                               ; preds = %23
  %28 = load ptr, ptr %5, align 8
  %29 = load ptr, ptr %5, align 8
  %30 = getelementptr inbounds %struct.tree, ptr %29, i32 0, i32 8
  %31 = load ptr, ptr %30, align 8
  %32 = load ptr, ptr %5, align 8
  %33 = getelementptr inbounds %struct.tree, ptr %32, i32 0, i32 29
  %34 = load i32, ptr %33, align 4
  %35 = load ptr, ptr %5, align 8
  %36 = getelementptr inbounds %struct.tree, ptr %35, i32 0, i32 15
  %37 = getelementptr inbounds %struct.stat, ptr %36, i32 0, i32 0
  %38 = load i64, ptr %37, align 8
  %39 = load ptr, ptr %5, align 8
  %40 = getelementptr inbounds %struct.tree, ptr %39, i32 0, i32 15
  %41 = getelementptr inbounds %struct.stat, ptr %40, i32 0, i32 1
  %42 = load i64, ptr %41, align 8
  %43 = load ptr, ptr %5, align 8
  %44 = getelementptr inbounds %struct.tree, ptr %43, i32 0, i32 19
  call void @tree_push(ptr noundef %28, ptr noundef %31, i32 noundef %34, i64 noundef %38, i64 noundef %42, ptr noundef %44)
  %45 = load ptr, ptr %5, align 8
  %46 = getelementptr inbounds %struct.tree, ptr %45, i32 0, i32 0
  %47 = load ptr, ptr %46, align 8
  %48 = getelementptr inbounds %struct.tree_entry, ptr %47, i32 0, i32 2
  %49 = load ptr, ptr %48, align 8
  %50 = getelementptr inbounds %struct.tree_entry, ptr %49, i32 0, i32 2
  %51 = load ptr, ptr %50, align 8
  %52 = icmp ne ptr %51, null
  br i1 %52, label %53, label %60

53:                                               ; preds = %27
  %54 = load ptr, ptr %5, align 8
  %55 = getelementptr inbounds %struct.tree, ptr %54, i32 0, i32 0
  %56 = load ptr, ptr %55, align 8
  %57 = getelementptr inbounds %struct.tree_entry, ptr %56, i32 0, i32 7
  %58 = load i32, ptr %57, align 8
  %59 = or i32 %58, 1
  store i32 %59, ptr %57, align 8
  br label %67

60:                                               ; preds = %27
  %61 = load ptr, ptr %5, align 8
  %62 = getelementptr inbounds %struct.tree, ptr %61, i32 0, i32 0
  %63 = load ptr, ptr %62, align 8
  %64 = getelementptr inbounds %struct.tree_entry, ptr %63, i32 0, i32 7
  %65 = load i32, ptr %64, align 8
  %66 = or i32 %65, 2
  store i32 %66, ptr %64, align 8
  br label %67

67:                                               ; preds = %60, %53
  br label %97

68:                                               ; preds = %23
  %69 = load ptr, ptr %5, align 8
  %70 = call i32 @tree_current_is_dir(ptr noundef %69)
  %71 = icmp ne i32 %70, 0
  br i1 %71, label %72, label %96

72:                                               ; preds = %68
  %73 = load ptr, ptr %5, align 8
  %74 = load ptr, ptr %5, align 8
  %75 = getelementptr inbounds %struct.tree, ptr %74, i32 0, i32 8
  %76 = load ptr, ptr %75, align 8
  %77 = load ptr, ptr %5, align 8
  %78 = getelementptr inbounds %struct.tree, ptr %77, i32 0, i32 29
  %79 = load i32, ptr %78, align 4
  %80 = load ptr, ptr %5, align 8
  %81 = getelementptr inbounds %struct.tree, ptr %80, i32 0, i32 16
  %82 = getelementptr inbounds %struct.stat, ptr %81, i32 0, i32 0
  %83 = load i64, ptr %82, align 8
  %84 = load ptr, ptr %5, align 8
  %85 = getelementptr inbounds %struct.tree, ptr %84, i32 0, i32 16
  %86 = getelementptr inbounds %struct.stat, ptr %85, i32 0, i32 1
  %87 = load i64, ptr %86, align 8
  %88 = load ptr, ptr %5, align 8
  %89 = getelementptr inbounds %struct.tree, ptr %88, i32 0, i32 19
  call void @tree_push(ptr noundef %73, ptr noundef %76, i32 noundef %79, i64 noundef %83, i64 noundef %87, ptr noundef %89)
  %90 = load ptr, ptr %5, align 8
  %91 = getelementptr inbounds %struct.tree, ptr %90, i32 0, i32 0
  %92 = load ptr, ptr %91, align 8
  %93 = getelementptr inbounds %struct.tree_entry, ptr %92, i32 0, i32 7
  %94 = load i32, ptr %93, align 8
  %95 = or i32 %94, 2
  store i32 %95, ptr %93, align 8
  br label %96

96:                                               ; preds = %72, %68
  br label %97

97:                                               ; preds = %96, %67
  %98 = load ptr, ptr %5, align 8
  %99 = getelementptr inbounds %struct.tree, ptr %98, i32 0, i32 17
  store i32 0, ptr %99, align 8
  store i32 0, ptr %2, align 4
  br label %100

100:                                              ; preds = %97, %22, %16
  %101 = load i32, ptr %2, align 4
  ret i32 %101
}