; Function Attrs: nounwind uwtable
define dso_local range(i32 -30, 1) i32 @archive_read_disk_descend(ptr noundef %0) local_unnamed_addr #0 {
  %2 = getelementptr inbounds nuw i8, ptr %0, i64 160
  %3 = load ptr, ptr %2, align 8
  %4 = tail call i32 @__archive_check_magic(ptr noundef %0, i32 noundef 195932357, i32 noundef 6, ptr noundef nonnull @.str.12) #17
  %5 = icmp eq i32 %4, -30
  br i1 %5, label %archive_read_disk_can_descend.exit.thread, label %6

6:                                                ; preds = %1
  %7 = load ptr, ptr %2, align 8
  %8 = tail call i32 @__archive_check_magic(ptr noundef nonnull %0, i32 noundef 195932357, i32 noundef 6, ptr noundef nonnull @.str.11) #17
  %9 = icmp eq i32 %8, -30
  br i1 %9, label %archive_read_disk_can_descend.exit.thread32, label %10

10:                                               ; preds = %6
  %11 = getelementptr inbounds nuw i8, ptr %7, i64 36
  %12 = load i32, ptr %11, align 4
  %13 = icmp eq i32 %12, 1
  br i1 %13, label %archive_read_disk_can_descend.exit, label %archive_read_disk_can_descend.exit.thread

archive_read_disk_can_descend.exit:               ; preds = %10
  %14 = getelementptr inbounds nuw i8, ptr %7, i64 400
  %15 = load i32, ptr %14, align 8
  %.not42 = icmp eq i32 %15, 0
  br i1 %.not42, label %archive_read_disk_can_descend.exit.thread, label %archive_read_disk_can_descend.exit.thread32

archive_read_disk_can_descend.exit.thread32:      ; preds = %6, %archive_read_disk_can_descend.exit
  %16 = getelementptr inbounds nuw i8, ptr %3, i64 32
  %17 = load i32, ptr %16, align 8
  %18 = and i32 %17, 16
  %.not.i = icmp eq i32 %18, 0
  br i1 %.not.i, label %24, label %19

19:                                               ; preds = %archive_read_disk_can_descend.exit.thread32
  %20 = getelementptr inbounds nuw i8, ptr %3, i64 280
  %21 = load i32, ptr %20, align 8
  %22 = and i32 %21, 61440
  %23 = icmp eq i32 %22, 16384
  br i1 %23, label %24, label %tree_current_is_physical_dir.exit.thread

24:                                               ; preds = %19, %archive_read_disk_can_descend.exit.thread32
  %25 = and i32 %17, 32
  %.not.i9.i = icmp eq i32 %25, 0
  br i1 %.not.i9.i, label %26, label %tree_current_is_physical_dir.exit

26:                                               ; preds = %24
  %27 = getelementptr inbounds nuw i8, ptr %3, i64 104
  %28 = load i32, ptr %27, align 8
  %29 = getelementptr i8, ptr %3, i64 72
  %.val.i11.i = load ptr, ptr %29, align 8
  %30 = getelementptr inbounds nuw i8, ptr %3, i64 112
  %31 = tail call i32 @fstatat(i32 noundef %28, ptr noundef %.val.i11.i, ptr noundef nonnull %30, i32 noundef 256) #17
  %.not7.i12.i = icmp eq i32 %31, 0
  %.pre = load i32, ptr %16, align 8
  br i1 %.not7.i12.i, label %32, label %tree_current_is_physical_dir.exit.thread

32:                                               ; preds = %26
  %33 = or i32 %.pre, 32
  store i32 %33, ptr %16, align 8
  br label %tree_current_is_physical_dir.exit

tree_current_is_physical_dir.exit:                ; preds = %24, %32
  %34 = phi i32 [ %17, %24 ], [ %33, %32 ]
  %35 = getelementptr inbounds nuw i8, ptr %3, i64 136
  %36 = load i32, ptr %35, align 8
  %37 = and i32 %36, 61440
  %.not = icmp eq i32 %37, 16384
  br i1 %.not, label %38, label %tree_current_is_physical_dir.exit.thread

38:                                               ; preds = %tree_current_is_physical_dir.exit
  %39 = getelementptr inbounds nuw i8, ptr %3, i64 72
  %40 = load ptr, ptr %39, align 8
  %41 = getelementptr inbounds nuw i8, ptr %3, i64 508
  %42 = load i32, ptr %41, align 4
  %43 = getelementptr inbounds nuw i8, ptr %3, i64 112
  %44 = load i64, ptr %43, align 8
  %45 = getelementptr inbounds nuw i8, ptr %3, i64 120
  %46 = load i64, ptr %45, align 8
  %47 = getelementptr inbounds nuw i8, ptr %3, i64 408
  tail call fastcc void @tree_push(ptr noundef nonnull %3, ptr noundef %40, i32 noundef %42, i64 noundef %44, i64 noundef %46, ptr noundef nonnull %47)
  %48 = load ptr, ptr %3, align 8
  %49 = getelementptr inbounds nuw i8, ptr %48, i64 16
  %50 = load ptr, ptr %49, align 8
  %51 = getelementptr inbounds nuw i8, ptr %50, i64 16
  %52 = load ptr, ptr %51, align 8
  %.not26 = icmp eq ptr %52, null
  %53 = getelementptr inbounds nuw i8, ptr %48, i64 72
  %54 = load i32, ptr %53, align 8
  br i1 %.not26, label %57, label %55

55:                                               ; preds = %38
  %56 = or i32 %54, 1
  store i32 %56, ptr %53, align 8
  br label %tree_current_is_dir.exit.thread

57:                                               ; preds = %38
  %58 = or i32 %54, 2
  store i32 %58, ptr %53, align 8
  br label %tree_current_is_dir.exit.thread

tree_current_is_physical_dir.exit.thread:         ; preds = %26, %19, %tree_current_is_physical_dir.exit
  %59 = phi i32 [ %.pre, %26 ], [ %17, %19 ], [ %34, %tree_current_is_physical_dir.exit ]
  %60 = and i32 %59, 32
  %.not.i28 = icmp eq i32 %60, 0
  br i1 %.not.i28, label %65, label %61

61:                                               ; preds = %tree_current_is_physical_dir.exit.thread
  %62 = getelementptr inbounds nuw i8, ptr %3, i64 136
  %63 = load i32, ptr %62, align 8
  %64 = trunc i32 %63 to i16
  %trunc.i = and i16 %64, -4096
  switch i16 %trunc.i, label %tree_current_is_dir.exit.thread [
    i16 16384, label %tree_current_is_dir.exit.thread39
    i16 -24576, label %65
  ]

65:                                               ; preds = %61, %tree_current_is_physical_dir.exit.thread
  %66 = and i32 %59, 16
  %.not.i11.i = icmp eq i32 %66, 0
  br i1 %.not.i11.i, label %67, label %tree_current_is_dir.exit

67:                                               ; preds = %65
  %68 = getelementptr inbounds nuw i8, ptr %3, i64 104
  %69 = load i32, ptr %68, align 8
  %70 = getelementptr i8, ptr %3, i64 72
  %.val.i13.i = load ptr, ptr %70, align 8
  %71 = getelementptr inbounds nuw i8, ptr %3, i64 256
  %72 = tail call i32 @fstatat(i32 noundef %69, ptr noundef %.val.i13.i, ptr noundef nonnull %71, i32 noundef 0) #17
  %.not7.i14.i = icmp eq i32 %72, 0
  br i1 %.not7.i14.i, label %73, label %tree_current_is_dir.exit.thread

73:                                               ; preds = %67
  %74 = load i32, ptr %16, align 8
  %75 = or i32 %74, 16
  store i32 %75, ptr %16, align 8
  br label %tree_current_is_dir.exit

tree_current_is_dir.exit:                         ; preds = %65, %73
  %76 = getelementptr inbounds nuw i8, ptr %3, i64 280
  %77 = load i32, ptr %76, align 8
  %78 = and i32 %77, 61440
  %.not43 = icmp eq i32 %78, 16384
  br i1 %.not43, label %tree_current_is_dir.exit.thread39, label %tree_current_is_dir.exit.thread

tree_current_is_dir.exit.thread39:                ; preds = %61, %tree_current_is_dir.exit
  %79 = getelementptr inbounds nuw i8, ptr %3, i64 72
  %80 = load ptr, ptr %79, align 8
  %81 = getelementptr inbounds nuw i8, ptr %3, i64 508
  %82 = load i32, ptr %81, align 4
  %83 = getelementptr inbounds nuw i8, ptr %3, i64 256
  %84 = load i64, ptr %83, align 8
  %85 = getelementptr inbounds nuw i8, ptr %3, i64 264
  %86 = load i64, ptr %85, align 8
  %87 = getelementptr inbounds nuw i8, ptr %3, i64 408
  tail call fastcc void @tree_push(ptr noundef nonnull %3, ptr noundef %80, i32 noundef %82, i64 noundef %84, i64 noundef %86, ptr noundef nonnull %87)
  %88 = load ptr, ptr %3, align 8
  %89 = getelementptr inbounds nuw i8, ptr %88, i64 72
  %90 = load i32, ptr %89, align 8
  %91 = or i32 %90, 2
  store i32 %91, ptr %89, align 8
  br label %tree_current_is_dir.exit.thread

tree_current_is_dir.exit.thread:                  ; preds = %61, %67, %tree_current_is_dir.exit, %tree_current_is_dir.exit.thread39, %55, %57
  %92 = getelementptr inbounds nuw i8, ptr %3, i64 400
  store i32 0, ptr %92, align 8
  br label %archive_read_disk_can_descend.exit.thread

archive_read_disk_can_descend.exit.thread:        ; preds = %10, %archive_read_disk_can_descend.exit, %1, %tree_current_is_dir.exit.thread
  %.0 = phi i32 [ 0, %tree_current_is_dir.exit.thread ], [ -30, %1 ], [ 0, %archive_read_disk_can_descend.exit ], [ 0, %10 ]
  ret i32 %.0
}